target datalayout = "e-m:e-p270:32:32-p271:32:32-p272:64:64-i64:64-i128:128-f80:128-n8:16:32:64-S128"
target triple = "x86_64-unknown-linux-gnu"

%"class.std::basic_istream" = type { ptr, i64, %"class.std::basic_ios" }
%"class.std::basic_ios" = type { %"class.std::ios_base", ptr, i8, i8, ptr, ptr, ptr, ptr }
%"class.std::ios_base" = type { ptr, i64, i64, i32, i32, i32, ptr, %"struct.std::ios_base::_Words", [8 x %"struct.std::ios_base::_Words"], i32, ptr, %"class.std::locale" }
%"struct.std::ios_base::_Words" = type { ptr, i64 }
%"class.std::locale" = type { ptr }
%"class.std::basic_ostream" = type { ptr, %"class.std::basic_ios" }
%class.veloxtpFlexLexer = type <{ %class.FlexLexer.base, i32, i32, [4 x i8], ptr, %"class.std::basic_istream", %"class.std::basic_ostream", i8, [3 x i8], i32, ptr, i32, i32, i32, [4 x i8], i64, i64, ptr, i32, [4 x i8], ptr, ptr, ptr, ptr, ptr, i32, i32, i32, i32, i32, i32, i32, [4 x i8] }>
%class.FlexLexer.base = type <{ ptr, ptr, i32, i32, i32 }>

@.str.9 = private unnamed_addr constant [46 x i8] c"out of memory expanding start-condition stack\00", align 1

; Function Attrs: mustprogress nounwind uwtable
define noundef ptr @_Z14veloxtpreallocPvm(ptr noundef %ptr, i64 noundef %size) #4 {
entry:
  %ptr.addr = alloca ptr, align 8
  %size.addr = alloca i64, align 8
  store ptr %ptr, ptr %ptr.addr, align 8
  store i64 %size, ptr %size.addr, align 8
  %0 = load ptr, ptr %ptr.addr, align 8
  %1 = load i64, ptr %size.addr, align 8
  %call = call ptr @realloc(ptr noundef %0, i64 noundef %1) #22
  ret ptr %call
}

; Function Attrs: mustprogress nounwind uwtable
define noundef ptr @_Z12veloxtpallocm(i64 noundef %size) #4 {
entry:
  %size.addr = alloca i64, align 8
  store i64 %size, ptr %size.addr, align 8
  %0 = load i64, ptr %size.addr, align 8
  %call = call noalias ptr @malloc(i64 noundef %0) #24
  ret ptr %call
}

; Function Attrs: mustprogress uwtable
define void @_ZN16veloxtpFlexLexer13yy_push_stateEi(ptr noundef nonnull align 8 dereferenceable(732) %this, i32 noundef %_new_state) #5 align 2 {
entry:
  %this.addr = alloca ptr, align 8
  %_new_state.addr = alloca i32, align 4
  %new_size = alloca i64, align 8
  store ptr %this, ptr %this.addr, align 8
  store i32 %_new_state, ptr %_new_state.addr, align 4
  %this1 = load ptr, ptr %this.addr, align 8
  %yy_start_stack_ptr = getelementptr inbounds %class.veloxtpFlexLexer, ptr %this1, i32 0, i32 1
  %0 = load i32, ptr %yy_start_stack_ptr, align 4
  %yy_start_stack_depth = getelementptr inbounds %class.veloxtpFlexLexer, ptr %this1, i32 0, i32 2
  %1 = load i32, ptr %yy_start_stack_depth, align 8
  %cmp = icmp sge i32 %0, %1
  br i1 %cmp, label %if.then, label %if.end13

if.then:                                          ; preds = %entry
  %yy_start_stack_depth2 = getelementptr inbounds %class.veloxtpFlexLexer, ptr %this1, i32 0, i32 2
  %2 = load i32, ptr %yy_start_stack_depth2, align 8
  %add = add nsw i32 %2, 25
  store i32 %add, ptr %yy_start_stack_depth2, align 8
  %yy_start_stack_depth3 = getelementptr inbounds %class.veloxtpFlexLexer, ptr %this1, i32 0, i32 2
  %3 = load i32, ptr %yy_start_stack_depth3, align 8
  %conv = sext i32 %3 to i64
  %mul = mul i64 %conv, 4
  store i64 %mul, ptr %new_size, align 8
  %yy_start_stack = getelementptr inbounds %class.veloxtpFlexLexer, ptr %this1, i32 0, i32 4
  %4 = load ptr, ptr %yy_start_stack, align 8
  %tobool = icmp ne ptr %4, null
  br i1 %tobool, label %if.else, label %if.then4

if.then4:                                         ; preds = %if.then
  %5 = load i64, ptr %new_size, align 8
  %call = call noundef ptr @_Z12veloxtpallocm(i64 noundef %5)
  %yy_start_stack5 = getelementptr inbounds %class.veloxtpFlexLexer, ptr %this1, i32 0, i32 4
  store ptr %call, ptr %yy_start_stack5, align 8
  br label %if.end

if.else:                                          ; preds = %if.then
  %yy_start_stack6 = getelementptr inbounds %class.veloxtpFlexLexer, ptr %this1, i32 0, i32 4
  %6 = load ptr, ptr %yy_start_stack6, align 8
  %7 = load i64, ptr %new_size, align 8
  %call7 = call noundef ptr @_Z14veloxtpreallocPvm(ptr noundef %6, i64 noundef %7)
  %yy_start_stack8 = getelementptr inbounds %class.veloxtpFlexLexer, ptr %this1, i32 0, i32 4
  store ptr %call7, ptr %yy_start_stack8, align 8
  br label %if.end

if.end:                                           ; preds = %if.else, %if.then4
  %yy_start_stack9 = getelementptr inbounds %class.veloxtpFlexLexer, ptr %this1, i32 0, i32 4
  %8 = load ptr, ptr %yy_start_stack9, align 8
  %tobool10 = icmp ne ptr %8, null
  br i1 %tobool10, label %if.end12, label %if.then11

if.then11:                                        ; preds = %if.end
  %vtable = load ptr, ptr %this1, align 8
  %vfn = getelementptr inbounds ptr, ptr %vtable, i64 14
  %9 = load ptr, ptr %vfn, align 8
  call void %9(ptr noundef nonnull align 8 dereferenceable(732) %this1, ptr noundef @.str.9)
  br label %if.end12

if.end12:                                         ; preds = %if.then11, %if.end
  br label %if.end13

if.end13:                                         ; preds = %if.end12, %entry
  %yy_start = getelementptr inbounds %class.veloxtpFlexLexer, ptr %this1, i32 0, i32 12
  %10 = load i32, ptr %yy_start, align 4
  %sub = sub nsw i32 %10, 1
  %div = sdiv i32 %sub, 2
  %yy_start_stack14 = getelementptr inbounds %class.veloxtpFlexLexer, ptr %this1, i32 0, i32 4
  %11 = load ptr, ptr %yy_start_stack14, align 8
  %yy_start_stack_ptr15 = getelementptr inbounds %class.veloxtpFlexLexer, ptr %this1, i32 0, i32 1
  %12 = load i32, ptr %yy_start_stack_ptr15, align 4
  %inc = add nsw i32 %12, 1
  store i32 %inc, ptr %yy_start_stack_ptr15, align 4
  %idxprom = sext i32 %12 to i64
  %arrayidx = getelementptr inbounds i32, ptr %11, i64 %idxprom
  store i32 %div, ptr %arrayidx, align 4
  %13 = load i32, ptr %_new_state.addr, align 4
  %mul16 = mul nsw i32 2, %13
  %add17 = add nsw i32 1, %mul16
  %yy_start18 = getelementptr inbounds %class.veloxtpFlexLexer, ptr %this1, i32 0, i32 12
  store i32 %add17, ptr %yy_start18, align 4
  ret void
}