; Function Attrs: mustprogress uwtable
define void @_ZN16veloxtpFlexLexer13yy_push_stateEi(ptr noundef nonnull align 8 dereferenceable(732) %this, i32 noundef %_new_state) local_unnamed_addr #4 align 2 {
entry:
  %yy_start_stack_ptr = getelementptr inbounds i8, ptr %this, i64 28
  %0 = load i32, ptr %yy_start_stack_ptr, align 4
  %yy_start_stack_depth = getelementptr inbounds i8, ptr %this, i64 32
  %1 = load i32, ptr %yy_start_stack_depth, align 8
  %cmp.not = icmp slt i32 %0, %1
  br i1 %cmp.not, label %if.end13, label %if.then

if.then:                                          ; preds = %entry
  %add = add nsw i32 %1, 25
  store i32 %add, ptr %yy_start_stack_depth, align 8
  %conv = sext i32 %add to i64
  %mul = shl nsw i64 %conv, 2
  %yy_start_stack = getelementptr inbounds i8, ptr %this, i64 40
  %2 = load ptr, ptr %yy_start_stack, align 8
  %tobool.not = icmp eq ptr %2, null
  br i1 %tobool.not, label %if.then4, label %if.else

if.then4:                                         ; preds = %if.then
  %call.i = tail call noalias noundef ptr @malloc(i64 noundef %mul) #32
  br label %if.end

if.else:                                          ; preds = %if.then
  %call.i3 = tail call noalias noundef ptr @realloc(ptr noundef nonnull %2, i64 noundef %mul) #33
  br label %if.end

if.end:                                           ; preds = %if.else, %if.then4
  %storemerge = phi ptr [ %call.i, %if.then4 ], [ %call.i3, %if.else ]
  store ptr %storemerge, ptr %yy_start_stack, align 8
  %tobool10.not = icmp eq ptr %storemerge, null
  br i1 %tobool10.not, label %if.then11, label %if.end13

if.then11:                                        ; preds = %if.end
  %vtable = load ptr, ptr %this, align 8
  %vfn = getelementptr inbounds i8, ptr %vtable, i64 112
  %3 = load ptr, ptr %vfn, align 8
  tail call void %3(ptr noundef nonnull align 8 dereferenceable(732) %this, ptr noundef nonnull @.str.9)
  br label %if.end13

if.end13:                                         ; preds = %if.end, %if.then11, %entry
  %yy_start = getelementptr inbounds i8, ptr %this, i64 620
  %4 = load i32, ptr %yy_start, align 4
  %sub = add nsw i32 %4, -1
  %div = sdiv i32 %sub, 2
  %yy_start_stack14 = getelementptr inbounds i8, ptr %this, i64 40
  %5 = load ptr, ptr %yy_start_stack14, align 8
  %6 = load i32, ptr %yy_start_stack_ptr, align 4
  %inc = add nsw i32 %6, 1
  store i32 %inc, ptr %yy_start_stack_ptr, align 4
  %idxprom = sext i32 %6 to i64
  %arrayidx = getelementptr inbounds i32, ptr %5, i64 %idxprom
  store i32 %div, ptr %arrayidx, align 4
  %mul16 = shl nsw i32 %_new_state, 1
  %add17 = or disjoint i32 %mul16, 1
  store i32 %add17, ptr %yy_start, align 4
  ret void
}